; ModuleID = '34/3084.c'
source_filename = "34/3084.c"
target datalayout = "e-m:e-p270:32:32-p271:32:32-p272:64:64-i64:64-f80:128-n8:16:32:64-S128"
target triple = "x86_64-pc-linux-gnu"

@.str = private unnamed_addr constant [3 x i8] c"%d\00", align 1
@.str.1 = private unnamed_addr constant [11 x i8] c"%d*3+1=%d\0A\00", align 1
@.str.2 = private unnamed_addr constant [9 x i8] c"%d/2=%d\0A\00", align 1
@.str.3 = private unnamed_addr constant [4 x i8] c"End\00", align 1

; Function Attrs: noinline nounwind uwtable
define dso_local i32 @main() #0 {
  %1 = alloca i32, align 4
  %2 = alloca i32, align 4
  %3 = alloca i32, align 4
  store i32 0, i32* %1, align 4
  %4 = call i32 (i8*, ...) @__isoc99_scanf(i8* getelementptr inbounds ([3 x i8], [3 x i8]* @.str, i64 0, i64 0), i32* %2)
  %5 = load i32, i32* %2, align 4
  %6 = icmp ne i32 %5, 1
  br i1 %6, label %7, label %37

7:                                                ; preds = %0
  br label %8

8:                                                ; preds = %32, %7
  %9 = load i32, i32* %2, align 4
  %10 = srem i32 %9, 2
  %11 = icmp eq i32 %10, 1
  br i1 %11, label %12, label %19

12:                                               ; preds = %8
  %13 = load i32, i32* %2, align 4
  %14 = mul nsw i32 %13, 3
  %15 = add nsw i32 %14, 1
  store i32 %15, i32* %3, align 4
  %16 = load i32, i32* %2, align 4
  %17 = load i32, i32* %3, align 4
  %18 = call i32 (i8*, ...) @printf(i8* getelementptr inbounds ([11 x i8], [11 x i8]* @.str.1, i64 0, i64 0), i32 %16, i32 %17)
  br label %30

19:                                               ; preds = %8
  %20 = load i32, i32* %2, align 4
  %21 = srem i32 %20, 2
  %22 = icmp eq i32 %21, 0
  br i1 %22, label %23, label %29

23:                                               ; preds = %19
  %24 = load i32, i32* %2, align 4
  %25 = sdiv i32 %24, 2
  store i32 %25, i32* %3, align 4
  %26 = load i32, i32* %2, align 4
  %27 = load i32, i32* %3, align 4
  %28 = call i32 (i8*, ...) @printf(i8* getelementptr inbounds ([9 x i8], [9 x i8]* @.str.2, i64 0, i64 0), i32 %26, i32 %27)
  br label %29

29:                                               ; preds = %23, %19
  br label %30

30:                                               ; preds = %29, %12
  %31 = load i32, i32* %3, align 4
  store i32 %31, i32* %2, align 4
  br label %32

32:                                               ; preds = %30
  %33 = load i32, i32* %2, align 4
  %34 = icmp ne i32 %33, 1
  br i1 %34, label %8, label %35

35:                                               ; preds = %32
  %36 = call i32 (i8*, ...) @printf(i8* getelementptr inbounds ([4 x i8], [4 x i8]* @.str.3, i64 0, i64 0))
  br label %39

37:                                               ; preds = %0
  %38 = call i32 (i8*, ...) @printf(i8* getelementptr inbounds ([4 x i8], [4 x i8]* @.str.3, i64 0, i64 0))
  br label %39

39:                                               ; preds = %37, %35
  %40 = call i32 @getchar()
  %41 = call i32 @getchar()
  %42 = call i32 @getchar()
  %43 = call i32 @getchar()
  %44 = call i32 @getchar()
  %45 = call i32 @getchar()
  %46 = load i32, i32* %1, align 4
  ret i32 %46
}

declare dso_local i32 @__isoc99_scanf(i8*, ...) #1

declare dso_local i32 @printf(i8*, ...) #1

declare dso_local i32 @getchar() #1


!llvm.module.flags = !{!0}
!llvm.ident = !{!1}

!0 = !{i32 1, !"wchar_size", i32 4}
!1 = !{!"clang version 10.0.0-4ubuntu1 "}
